ARM GAS  C:\Users\ksona\AppData\Local\Temp\ccLWe62I.s 			page 1


   1              		.cpu cortex-m4
   2              		.eabi_attribute 27, 1
   3              		.eabi_attribute 28, 1
   4              		.eabi_attribute 20, 1
   5              		.eabi_attribute 21, 1
   6              		.eabi_attribute 23, 3
   7              		.eabi_attribute 24, 1
   8              		.eabi_attribute 25, 1
   9              		.eabi_attribute 26, 1
  10              		.eabi_attribute 30, 2
  11              		.eabi_attribute 34, 1
  12              		.eabi_attribute 18, 4
  13              		.file	"main.c"
  14              		.text
  15              	.Ltext0:
  16              		.cfi_sections	.debug_frame
  17              		.section	.text.startup.main,"ax",%progbits
  18              		.align	1
  19              		.p2align 4,,15
  20              		.global	main
  21              		.syntax unified
  22              		.thumb
  23              		.thumb_func
  24              		.fpu fpv4-sp-d16
  25              		.type	main, %function
  26              	main:
  27              	.LFB259:
  28              		.file 1 "main.c"
  29              		.loc 1 35 0
  30              		.cfi_startproc
  31              		@ args = 0, pretend = 0, frame = 160
  32              		@ frame_needed = 0, uses_anonymous_args = 0
  33 0000 2DE9F04F 		push	{r4, r5, r6, r7, r8, r9, r10, fp, lr}
  34              		.cfi_def_cfa_offset 36
  35              		.cfi_offset 4, -36
  36              		.cfi_offset 5, -32
  37              		.cfi_offset 6, -28
  38              		.cfi_offset 7, -24
  39              		.cfi_offset 8, -20
  40              		.cfi_offset 9, -16
  41              		.cfi_offset 10, -12
  42              		.cfi_offset 11, -8
  43              		.cfi_offset 14, -4
  44 0004 4B4B     		ldr	r3, .L19
  45              	.LBB11:
  46              		.loc 1 67 0
  47 0006 DFF84881 		ldr	r8, .L19+28
  48              	.LBE11:
  49              		.loc 1 35 0
  50 000a 1B68     		ldr	r3, [r3]
  51              	.LBB12:
  52              		.loc 1 68 0
  53 000c 4A4F     		ldr	r7, .L19+4
  54              	.LBE12:
  55              		.loc 1 35 0
  56 000e ABB0     		sub	sp, sp, #172
  57              		.cfi_def_cfa_offset 208
ARM GAS  C:\Users\ksona\AppData\Local\Temp\ccLWe62I.s 			page 2


  58              		.loc 1 52 0
  59 0010 0025     		movs	r5, #0
  60              		.loc 1 35 0
  61 0012 2993     		str	r3, [sp, #164]
  62              		.loc 1 36 0
  63 0014 FFF7FEFF 		bl	halInit
  64              	.LVL0:
  65              		.loc 1 37 0
  66 0018 FFF7FEFF 		bl	chSysInit
  67              	.LVL1:
  68              		.loc 1 38 0
  69 001c FFF7FEFF 		bl	mpu_init
  70              	.LVL2:
  71              		.loc 1 40 0
  72 0020 464A     		ldr	r2, .L19+8
  73 0022 4749     		ldr	r1, .L19+12
  74 0024 4748     		ldr	r0, .L19+16
  75 0026 FFF7FEFF 		bl	messagebus_init
  76              	.LVL3:
  77              		.loc 1 41 0
  78 002a FFF7FEFF 		bl	serial_start
  79              	.LVL4:
  80              		.loc 1 43 0
  81 002e FFF7FEFF 		bl	proximity_start
  82              	.LVL5:
  83              		.loc 1 44 0
  84 0032 FFF7FEFF 		bl	calibrate_ir
  85              	.LVL6:
  86              		.loc 1 45 0
  87 0036 FFF7FEFF 		bl	motors_init
  88              	.LVL7:
  89              		.loc 1 51 0
  90 003a 2C46     		mov	r4, r5
  91              		.loc 1 49 0
  92 003c A946     		mov	r9, r5
  93 003e 08AE     		add	r6, sp, #32
  94              	.LVL8:
  95              	.L12:
  96              		.loc 1 61 0
  97 0040 1920     		movs	r0, #25
  98 0042 FFF7FEFF 		bl	chThdSleep
  99              	.LVL9:
 100              	.LBB13:
 101              		.loc 1 63 0
 102 0046 4FF0000A 		mov	r10, #0
 103              	.LVL10:
 104              	.L2:
 105              		.loc 1 64 0 discriminator 3
 106 004a 2AAB     		add	r3, sp, #168
 107 004c 03EB840B 		add	fp, r3, r4, lsl #2
 108              		.loc 1 65 0 discriminator 3
 109 0050 5046     		mov	r0, r10
 110              		.loc 1 64 0 discriminator 3
 111 0052 5BF89C3C 		ldr	r3, [fp, #-156]
 112 0056 ED1A     		subs	r5, r5, r3
 113              	.LVL11:
 114              		.loc 1 65 0 discriminator 3
ARM GAS  C:\Users\ksona\AppData\Local\Temp\ccLWe62I.s 			page 3


 115 0058 FFF7FEFF 		bl	get_calibrated_prox
 116              	.LVL12:
 117 005c 4BF89C0C 		str	r0, [fp, #-156]
 118              		.loc 1 66 0 discriminator 3
 119 0060 5046     		mov	r0, r10
 120 0062 FFF7FEFF 		bl	get_calibrated_prox
 121              	.LVL13:
 122 0066 0544     		add	r5, r5, r0
 123              	.LVL14:
 124              		.loc 1 67 0 discriminator 3
 125 0068 621C     		adds	r2, r4, #1
 126              		.loc 1 68 0 discriminator 3
 127 006a 87FB0531 		smull	r3, r1, r7, r5
 128 006e EB17     		asrs	r3, r5, #31
 129              		.loc 1 67 0 discriminator 3
 130 0070 A8FB0204 		umull	r0, r4, r8, r2
 131              	.LVL15:
 132              		.loc 1 68 0 discriminator 3
 133 0074 C3EB6103 		rsb	r3, r3, r1, asr #1
 134              		.loc 1 67 0 discriminator 3
 135 0078 A408     		lsrs	r4, r4, #2
 136              		.loc 1 68 0 discriminator 3
 137 007a 46F82A30 		str	r3, [r6, r10, lsl #2]
 138              		.loc 1 63 0 discriminator 3
 139 007e 0AF1010A 		add	r10, r10, #1
 140              	.LVL16:
 141              		.loc 1 67 0 discriminator 3
 142 0082 04EB8404 		add	r4, r4, r4, lsl #2
 143              		.loc 1 63 0 discriminator 3
 144 0086 BAF1080F 		cmp	r10, #8
 145              		.loc 1 67 0 discriminator 3
 146 008a A2EB0404 		sub	r4, r2, r4
 147              	.LVL17:
 148              		.loc 1 63 0 discriminator 3
 149 008e DCD1     		bne	.L2
 150              	.LBE13:
 151              		.loc 1 70 0
 152 0090 B9F1030F 		cmp	r9, #3
 153 0094 DDF820A0 		ldr	r10, [sp, #32]
 154              	.LVL18:
 155 0098 2DDC     		bgt	.L3
 156 009a 09F10109 		add	r9, r9, #1
 157              	.LVL19:
 158              	.L4:
 159 009e 2A4B     		ldr	r3, .L19+20
 160              		.loc 1 76 0
 161 00a0 BAF1280F 		cmp	r10, #40
 162 00a4 D3F800B0 		ldr	fp, [r3]
 163 00a8 0BDD     		ble	.L5
 164              		.loc 1 76 0 is_stmt 0 discriminator 1
 165 00aa 0F9A     		ldr	r2, [sp, #60]
 166 00ac 282A     		cmp	r2, #40
 167 00ae CBF1000A 		rsb	r10, fp, #0
 168 00b2 30DC     		bgt	.L18
 169              	.L6:
 170              	.LVL20:
 171              	.LBB14:
ARM GAS  C:\Users\ksona\AppData\Local\Temp\ccLWe62I.s 			page 4


 172              	.LBB15:
 173              		.loc 1 104 0 is_stmt 1
 174 00b4 5046     		mov	r0, r10
 175 00b6 FFF7FEFF 		bl	left_motor_set_speed
 176              	.LVL21:
 177              		.loc 1 105 0
 178 00ba 5846     		mov	r0, fp
 179 00bc FFF7FEFF 		bl	right_motor_set_speed
 180              	.LVL22:
 181 00c0 BEE7     		b	.L12
 182              	.L5:
 183              	.LBE15:
 184              	.LBE14:
 185              		.loc 1 81 0 discriminator 1
 186 00c2 099A     		ldr	r2, [sp, #36]
 187 00c4 282A     		cmp	r2, #40
 188 00c6 13DC     		bgt	.L16
 189              		.loc 1 81 0 is_stmt 0 discriminator 2
 190 00c8 0A9A     		ldr	r2, [sp, #40]
 191 00ca 1E2A     		cmp	r2, #30
 192 00cc 10DC     		bgt	.L16
 193              		.loc 1 84 0 is_stmt 1
 194 00ce 0F9A     		ldr	r2, [sp, #60]
 195 00d0 282A     		cmp	r2, #40
 196 00d2 05DC     		bgt	.L10
 197              		.loc 1 84 0 is_stmt 0 discriminator 1
 198 00d4 0E9A     		ldr	r2, [sp, #56]
 199 00d6 282A     		cmp	r2, #40
 200 00d8 02DC     		bgt	.L10
 201              		.loc 1 84 0 discriminator 2
 202 00da 0D9A     		ldr	r2, [sp, #52]
 203 00dc 1E2A     		cmp	r2, #30
 204 00de 21DD     		ble	.L11
 205              	.L10:
 206              	.LVL23:
 207              	.LBB16:
 208              	.LBB17:
 209              		.loc 1 110 0 is_stmt 1
 210 00e0 5846     		mov	r0, fp
 211 00e2 FFF7FEFF 		bl	left_motor_set_speed
 212              	.LVL24:
 213              		.loc 1 111 0
 214 00e6 CBF10000 		rsb	r0, fp, #0
 215 00ea FFF7FEFF 		bl	right_motor_set_speed
 216              	.LVL25:
 217 00ee A7E7     		b	.L12
 218              	.L16:
 219 00f0 CBF1000A 		rsb	r10, fp, #0
 220 00f4 DEE7     		b	.L6
 221              	.LVL26:
 222              	.L3:
 223              	.LBE17:
 224              	.LBE16:
 225              		.loc 1 72 0
 226 00f6 0999     		ldr	r1, [sp, #36]
 227 00f8 DDE90E23 		ldrd	r2, r3, [sp, #56]
 228 00fc CDE900A1 		strd	r10, r1, [sp]
ARM GAS  C:\Users\ksona\AppData\Local\Temp\ccLWe62I.s 			page 5


 229 0100 10A8     		add	r0, sp, #64
 230 0102 1249     		ldr	r1, .L19+24
 231 0104 FFF7FEFF 		bl	sprintf
 232              	.LVL27:
 233              		.loc 1 73 0
 234 0108 0146     		mov	r1, r0
 235 010a 10A8     		add	r0, sp, #64
 236              	.LVL28:
 237 010c FFF7FEFF 		bl	e_send_uart1_char
 238              	.LVL29:
 239 0110 4FF00109 		mov	r9, #1
 240 0114 C3E7     		b	.L4
 241              	.LVL30:
 242              	.L18:
 243              	.LBB18:
 244              	.LBB19:
 245              		.loc 1 110 0
 246 0116 5846     		mov	r0, fp
 247 0118 FFF7FEFF 		bl	left_motor_set_speed
 248              	.LVL31:
 249              		.loc 1 111 0
 250 011c 5046     		mov	r0, r10
 251 011e FFF7FEFF 		bl	right_motor_set_speed
 252              	.LVL32:
 253 0122 8DE7     		b	.L12
 254              	.L11:
 255              	.LVL33:
 256              	.LBE19:
 257              	.LBE18:
 258              	.LBB20:
 259              	.LBB21:
 260              		.loc 1 116 0
 261 0124 5846     		mov	r0, fp
 262 0126 FFF7FEFF 		bl	left_motor_set_speed
 263              	.LVL34:
 264              		.loc 1 117 0
 265 012a 5846     		mov	r0, fp
 266 012c FFF7FEFF 		bl	right_motor_set_speed
 267              	.LVL35:
 268              	.LBE21:
 269              	.LBE20:
 270              		.loc 1 61 0
 271 0130 86E7     		b	.L12
 272              	.L20:
 273 0132 00BF     		.align	2
 274              	.L19:
 275 0134 00000000 		.word	__stack_chk_guard
 276 0138 67666666 		.word	1717986919
 277 013c 00000000 		.word	.LANCHOR0
 278 0140 00000000 		.word	.LANCHOR1
 279 0144 00000000 		.word	.LANCHOR2
 280 0148 00000000 		.word	.LANCHOR3
 281 014c 00000000 		.word	.LC0
 282 0150 CDCCCCCC 		.word	-858993459
 283              		.cfi_endproc
 284              	.LFE259:
 285              		.size	main, .-main
ARM GAS  C:\Users\ksona\AppData\Local\Temp\ccLWe62I.s 			page 6


 286              		.section	.text.__stack_chk_fail,"ax",%progbits
 287              		.align	1
 288              		.p2align 4,,15
 289              		.global	__stack_chk_fail
 290              		.syntax unified
 291              		.thumb
 292              		.thumb_func
 293              		.fpu fpv4-sp-d16
 294              		.type	__stack_chk_fail, %function
 295              	__stack_chk_fail:
 296              	.LFB260:
 297              		.loc 1 98 0
 298              		.cfi_startproc
 299              		@ args = 0, pretend = 0, frame = 8
 300              		@ frame_needed = 0, uses_anonymous_args = 0
 301 0000 00B5     		push	{lr}
 302              		.cfi_def_cfa_offset 4
 303              		.cfi_offset 14, -4
 304 0002 084B     		ldr	r3, .L26
 305 0004 83B0     		sub	sp, sp, #12
 306              		.cfi_def_cfa_offset 16
 307              		.loc 1 98 0
 308 0006 1A68     		ldr	r2, [r3]
 309 0008 0192     		str	r2, [sp, #4]
 310              		.loc 1 99 0
 311 000a 019A     		ldr	r2, [sp, #4]
 312 000c 1B68     		ldr	r3, [r3]
 313 000e 9A42     		cmp	r2, r3
 314 0010 05D1     		bne	.L25
 315 0012 0548     		ldr	r0, .L26+4
 316              		.loc 1 100 0
 317 0014 03B0     		add	sp, sp, #12
 318              		.cfi_remember_state
 319              		.cfi_def_cfa_offset 4
 320              		@ sp needed
 321 0016 5DF804EB 		ldr	lr, [sp], #4
 322              		.cfi_restore 14
 323              		.cfi_def_cfa_offset 0
 324              		.loc 1 99 0
 325 001a FFF7FEBF 		b	chSysHalt
 326              	.LVL36:
 327              	.L25:
 328              		.cfi_restore_state
 329 001e FFF7FEFF 		bl	__stack_chk_fail
 330              	.LVL37:
 331              	.L27:
 332 0022 00BF     		.align	2
 333              	.L26:
 334 0024 00000000 		.word	__stack_chk_guard
 335 0028 00000000 		.word	.LC1
 336              		.cfi_endproc
 337              	.LFE260:
 338              		.size	__stack_chk_fail, .-__stack_chk_fail
 339              		.section	.text.turn_left,"ax",%progbits
 340              		.align	1
 341              		.p2align 4,,15
 342              		.global	turn_left
ARM GAS  C:\Users\ksona\AppData\Local\Temp\ccLWe62I.s 			page 7


 343              		.syntax unified
 344              		.thumb
 345              		.thumb_func
 346              		.fpu fpv4-sp-d16
 347              		.type	turn_left, %function
 348              	turn_left:
 349              	.LFB261:
 350              		.loc 1 103 0
 351              		.cfi_startproc
 352              		@ args = 0, pretend = 0, frame = 8
 353              		@ frame_needed = 0, uses_anonymous_args = 0
 354              	.LVL38:
 355 0000 30B5     		push	{r4, r5, lr}
 356              		.cfi_def_cfa_offset 12
 357              		.cfi_offset 4, -12
 358              		.cfi_offset 5, -8
 359              		.cfi_offset 14, -4
 360 0002 0A4C     		ldr	r4, .L33
 361 0004 83B0     		sub	sp, sp, #12
 362              		.cfi_def_cfa_offset 24
 363              		.loc 1 103 0
 364 0006 2368     		ldr	r3, [r4]
 365 0008 0193     		str	r3, [sp, #4]
 366 000a 0546     		mov	r5, r0
 367              		.loc 1 104 0
 368 000c 4042     		negs	r0, r0
 369              	.LVL39:
 370 000e FFF7FEFF 		bl	left_motor_set_speed
 371              	.LVL40:
 372              		.loc 1 105 0
 373 0012 019A     		ldr	r2, [sp, #4]
 374 0014 2368     		ldr	r3, [r4]
 375 0016 9A42     		cmp	r2, r3
 376 0018 05D1     		bne	.L32
 377 001a 2846     		mov	r0, r5
 378              		.loc 1 106 0
 379 001c 03B0     		add	sp, sp, #12
 380              		.cfi_remember_state
 381              		.cfi_def_cfa_offset 12
 382              		@ sp needed
 383 001e BDE83040 		pop	{r4, r5, lr}
 384              		.cfi_restore 14
 385              		.cfi_restore 5
 386              		.cfi_restore 4
 387              		.cfi_def_cfa_offset 0
 388              	.LVL41:
 389              		.loc 1 105 0
 390 0022 FFF7FEBF 		b	right_motor_set_speed
 391              	.LVL42:
 392              	.L32:
 393              		.cfi_restore_state
 394 0026 FFF7FEFF 		bl	__stack_chk_fail
 395              	.LVL43:
 396              	.L34:
 397 002a 00BF     		.align	2
 398              	.L33:
 399 002c 00000000 		.word	__stack_chk_guard
ARM GAS  C:\Users\ksona\AppData\Local\Temp\ccLWe62I.s 			page 8


 400              		.cfi_endproc
 401              	.LFE261:
 402              		.size	turn_left, .-turn_left
 403              		.section	.text.turn_right,"ax",%progbits
 404              		.align	1
 405              		.p2align 4,,15
 406              		.global	turn_right
 407              		.syntax unified
 408              		.thumb
 409              		.thumb_func
 410              		.fpu fpv4-sp-d16
 411              		.type	turn_right, %function
 412              	turn_right:
 413              	.LFB262:
 414              		.loc 1 109 0
 415              		.cfi_startproc
 416              		@ args = 0, pretend = 0, frame = 8
 417              		@ frame_needed = 0, uses_anonymous_args = 0
 418              	.LVL44:
 419 0000 30B5     		push	{r4, r5, lr}
 420              		.cfi_def_cfa_offset 12
 421              		.cfi_offset 4, -12
 422              		.cfi_offset 5, -8
 423              		.cfi_offset 14, -4
 424 0002 094C     		ldr	r4, .L40
 425 0004 83B0     		sub	sp, sp, #12
 426              		.cfi_def_cfa_offset 24
 427              		.loc 1 109 0
 428 0006 2368     		ldr	r3, [r4]
 429 0008 0193     		str	r3, [sp, #4]
 430 000a 0546     		mov	r5, r0
 431              		.loc 1 110 0
 432 000c FFF7FEFF 		bl	left_motor_set_speed
 433              	.LVL45:
 434              		.loc 1 111 0
 435 0010 019A     		ldr	r2, [sp, #4]
 436 0012 2368     		ldr	r3, [r4]
 437 0014 9A42     		cmp	r2, r3
 438 0016 05D1     		bne	.L39
 439 0018 6842     		negs	r0, r5
 440              		.loc 1 112 0
 441 001a 03B0     		add	sp, sp, #12
 442              		.cfi_remember_state
 443              		.cfi_def_cfa_offset 12
 444              		@ sp needed
 445 001c BDE83040 		pop	{r4, r5, lr}
 446              		.cfi_restore 14
 447              		.cfi_restore 5
 448              		.cfi_restore 4
 449              		.cfi_def_cfa_offset 0
 450              	.LVL46:
 451              		.loc 1 111 0
 452 0020 FFF7FEBF 		b	right_motor_set_speed
 453              	.LVL47:
 454              	.L39:
 455              		.cfi_restore_state
 456 0024 FFF7FEFF 		bl	__stack_chk_fail
ARM GAS  C:\Users\ksona\AppData\Local\Temp\ccLWe62I.s 			page 9


 457              	.LVL48:
 458              	.L41:
 459              		.align	2
 460              	.L40:
 461 0028 00000000 		.word	__stack_chk_guard
 462              		.cfi_endproc
 463              	.LFE262:
 464              		.size	turn_right, .-turn_right
 465              		.section	.text.move_forward,"ax",%progbits
 466              		.align	1
 467              		.p2align 4,,15
 468              		.global	move_forward
 469              		.syntax unified
 470              		.thumb
 471              		.thumb_func
 472              		.fpu fpv4-sp-d16
 473              		.type	move_forward, %function
 474              	move_forward:
 475              	.LFB263:
 476              		.loc 1 115 0
 477              		.cfi_startproc
 478              		@ args = 0, pretend = 0, frame = 8
 479              		@ frame_needed = 0, uses_anonymous_args = 0
 480              	.LVL49:
 481 0000 30B5     		push	{r4, r5, lr}
 482              		.cfi_def_cfa_offset 12
 483              		.cfi_offset 4, -12
 484              		.cfi_offset 5, -8
 485              		.cfi_offset 14, -4
 486 0002 094C     		ldr	r4, .L47
 487 0004 83B0     		sub	sp, sp, #12
 488              		.cfi_def_cfa_offset 24
 489              		.loc 1 115 0
 490 0006 2368     		ldr	r3, [r4]
 491 0008 0193     		str	r3, [sp, #4]
 492 000a 0546     		mov	r5, r0
 493              		.loc 1 116 0
 494 000c FFF7FEFF 		bl	left_motor_set_speed
 495              	.LVL50:
 496              		.loc 1 117 0
 497 0010 019A     		ldr	r2, [sp, #4]
 498 0012 2368     		ldr	r3, [r4]
 499 0014 9A42     		cmp	r2, r3
 500 0016 05D1     		bne	.L46
 501 0018 2846     		mov	r0, r5
 502              		.loc 1 118 0
 503 001a 03B0     		add	sp, sp, #12
 504              		.cfi_remember_state
 505              		.cfi_def_cfa_offset 12
 506              		@ sp needed
 507 001c BDE83040 		pop	{r4, r5, lr}
 508              		.cfi_restore 14
 509              		.cfi_restore 5
 510              		.cfi_restore 4
 511              		.cfi_def_cfa_offset 0
 512              	.LVL51:
 513              		.loc 1 117 0
ARM GAS  C:\Users\ksona\AppData\Local\Temp\ccLWe62I.s 			page 10


 514 0020 FFF7FEBF 		b	right_motor_set_speed
 515              	.LVL52:
 516              	.L46:
 517              		.cfi_restore_state
 518 0024 FFF7FEFF 		bl	__stack_chk_fail
 519              	.LVL53:
 520              	.L48:
 521              		.align	2
 522              	.L47:
 523 0028 00000000 		.word	__stack_chk_guard
 524              		.cfi_endproc
 525              	.LFE263:
 526              		.size	move_forward, .-move_forward
 527              		.global	__stack_chk_guard
 528              		.global	motor_speed
 529              		.global	bus_condvar
 530              		.global	bus_lock
 531              		.global	bus
 532              		.section	.bss.bus,"aw",%nobits
 533              		.align	2
 534              		.set	.LANCHOR2,. + 0
 535              		.type	bus, %object
 536              		.size	bus, 12
 537              	bus:
 538 0000 00000000 		.space	12
 538      00000000 
 538      00000000 
 539              		.section	.data.__stack_chk_guard,"aw",%progbits
 540              		.align	2
 541              		.type	__stack_chk_guard, %object
 542              		.size	__stack_chk_guard, 4
 543              	__stack_chk_guard:
 544 0000 96E3DEE2 		.word	-488709226
 545              		.section	.data.bus_condvar,"aw",%progbits
 546              		.align	2
 547              		.set	.LANCHOR0,. + 0
 548              		.type	bus_condvar, %object
 549              		.size	bus_condvar, 8
 550              	bus_condvar:
 551 0000 00000000 		.word	bus_condvar
 552 0004 00000000 		.word	bus_condvar
 553              		.section	.data.bus_lock,"aw",%progbits
 554              		.align	2
 555              		.set	.LANCHOR1,. + 0
 556              		.type	bus_lock, %object
 557              		.size	bus_lock, 20
 558              	bus_lock:
 559 0000 00000000 		.word	bus_lock
 560 0004 00000000 		.word	bus_lock
 561 0008 00000000 		.word	0
 562 000c 00000000 		.word	0
 563 0010 00000000 		.word	0
 564              		.section	.data.motor_speed,"aw",%progbits
 565              		.align	2
 566              		.set	.LANCHOR3,. + 0
 567              		.type	motor_speed, %object
 568              		.size	motor_speed, 4
ARM GAS  C:\Users\ksona\AppData\Local\Temp\ccLWe62I.s 			page 11


 569              	motor_speed:
 570 0000 BC020000 		.word	700
 571              		.section	.rodata.__stack_chk_fail.str1.4,"aMS",%progbits,1
 572              		.align	2
 573              	.LC1:
 574 0000 53746163 		.ascii	"Stack smashing detected\000"
 574      6B20736D 
 574      61736869 
 574      6E672064 
 574      65746563 
 575              		.section	.rodata.main.str1.4,"aMS",%progbits,1
 576              		.align	2
 577              	.LC0:
 578 0000 70726F78 		.ascii	"prox6 %d prox7 %d prox0 %d prox1 %d\012\000"
 578      36202564 
 578      2070726F 
 578      78372025 
 578      64207072 
 579              		.text
 580              	.Letext0:
 581              		.file 2 "d:\\foundation of robotics\\e puck 2\\eclipse_e-puck2_win32_29_jan_2020\\eclipse_e-puck2\
 582              		.file 3 "d:\\foundation of robotics\\e puck 2\\eclipse_e-puck2_win32_29_jan_2020\\eclipse_e-puck2\
 583              		.file 4 "d:\\foundation of robotics\\e puck 2\\eclipse_e-puck2_win32_29_jan_2020\\eclipse_e-puck2\
 584              		.file 5 "d:\\foundation of robotics\\e puck 2\\eclipse_e-puck2_win32_29_jan_2020\\eclipse_e-puck2\
 585              		.file 6 "d:\\foundation of robotics\\e puck 2\\eclipse_e-puck2_win32_29_jan_2020\\eclipse_e-puck2\
 586              		.file 7 "d:\\foundation of robotics\\e puck 2\\eclipse_e-puck2_win32_29_jan_2020\\eclipse_e-puck2\
 587              		.file 8 "d:\\foundation of robotics\\e puck 2\\eclipse_e-puck2_win32_29_jan_2020\\eclipse_e-puck2\
 588              		.file 9 "d:\\foundation of robotics\\e puck 2\\eclipse_e-puck2_win32_29_jan_2020\\eclipse_e-puck2\
 589              		.file 10 "../e-puck2_main-processor/ChibiOS//os/rt/ports/ARMCMx/compilers/GCC/chtypes.h"
 590              		.file 11 "../e-puck2_main-processor/ChibiOS//os/rt/include/chsystypes.h"
 591              		.file 12 "../e-puck2_main-processor/ChibiOS//os/rt/include/chschd.h"
 592              		.file 13 "../e-puck2_main-processor/ChibiOS//os/ext/CMSIS/include/core_cm4.h"
 593              		.file 14 "../e-puck2_main-processor/ChibiOS//os/ext/CMSIS/ST/system_stm32f4xx.h"
 594              		.file 15 "../e-puck2_main-processor/ChibiOS//os/ext/CMSIS/ST/stm32f407xx.h"
 595              		.file 16 "../e-puck2_main-processor/ChibiOS//os/rt/ports/ARMCMx/chcore.h"
 596              		.file 17 "../e-puck2_main-processor/ChibiOS//os/rt/ports/ARMCMx/chcore_v7m.h"
 597              		.file 18 "../e-puck2_main-processor/ChibiOS//os/rt/include/chdebug.h"
 598              		.file 19 "../e-puck2_main-processor/ChibiOS//os/rt/include/chtm.h"
 599              		.file 20 "../e-puck2_main-processor/ChibiOS//os/rt/include/chstats.h"
 600              		.file 21 "../e-puck2_main-processor/ChibiOS//os/rt/include/chsem.h"
 601              		.file 22 "../e-puck2_main-processor/ChibiOS//os/rt/include/chmtx.h"
 602              		.file 23 "../e-puck2_main-processor/ChibiOS//os/rt/include/chregistry.h"
 603              		.file 24 "../e-puck2_main-processor/ChibiOS//os/rt/include/chcond.h"
 604              		.file 25 "../e-puck2_main-processor/ChibiOS//os/rt/include/chevents.h"
 605              		.file 26 "../e-puck2_main-processor/ChibiOS//os/rt/include/chqueues.h"
 606              		.file 27 "../e-puck2_main-processor/ChibiOS//os/hal/ports/STM32/STM32F4xx/stm32_dma.h"
 607              		.file 28 "../e-puck2_main-processor/ChibiOS//os/hal/include/hal_ioblock.h"
 608              		.file 29 "../e-puck2_main-processor/ChibiOS//os/hal/ports/STM32/LLD/GPIOv2/pal_lld.h"
 609              		.file 30 "../e-puck2_main-processor/ChibiOS//os/hal/include/adc.h"
 610              		.file 31 "../e-puck2_main-processor/ChibiOS//os/hal/ports/STM32/STM32F4xx/adc_lld.h"
 611              		.file 32 "../e-puck2_main-processor/ChibiOS//os/hal/include/can.h"
 612              		.file 33 "../e-puck2_main-processor/ChibiOS//os/hal/ports/STM32/LLD/can_lld.h"
 613              		.file 34 "../e-puck2_main-processor/ChibiOS//os/hal/include/dac.h"
 614              		.file 35 "../e-puck2_main-processor/ChibiOS//os/hal/ports/STM32/LLD/DACv1/dac_lld.h"
 615              		.file 36 "../e-puck2_main-processor/ChibiOS//os/hal/include/ext.h"
 616              		.file 37 "../e-puck2_main-processor/ChibiOS//os/hal/ports/STM32/LLD/ext_lld.h"
 617              		.file 38 "../e-puck2_main-processor/ChibiOS//os/hal/include/gpt.h"
ARM GAS  C:\Users\ksona\AppData\Local\Temp\ccLWe62I.s 			page 12


 618              		.file 39 "../e-puck2_main-processor/ChibiOS//os/hal/ports/STM32/LLD/TIMv1/gpt_lld.h"
 619              		.file 40 "../e-puck2_main-processor/ChibiOS//os/hal/ports/STM32/LLD/TIMv1/stm32_tim.h"
 620              		.file 41 "../e-puck2_main-processor/ChibiOS//os/hal/include/i2c.h"
 621              		.file 42 "../e-puck2_main-processor/ChibiOS//os/hal/ports/STM32/LLD/I2Cv1/i2c_lld.h"
 622              		.file 43 "../e-puck2_main-processor/ChibiOS//os/hal/include/i2s.h"
 623              		.file 44 "../e-puck2_main-processor/ChibiOS//os/hal/ports/STM32/LLD/SPIv1/i2s_lld.h"
 624              		.file 45 "../e-puck2_main-processor/ChibiOS//os/hal/include/pwm.h"
 625              		.file 46 "../e-puck2_main-processor/ChibiOS//os/hal/ports/STM32/LLD/TIMv1/pwm_lld.h"
 626              		.file 47 "../e-puck2_main-processor/ChibiOS//os/hal/include/serial.h"
 627              		.file 48 "../e-puck2_main-processor/ChibiOS//os/hal/ports/STM32/LLD/USARTv1/serial_lld.h"
 628              		.file 49 "../e-puck2_main-processor/ChibiOS//os/hal/include/sdc.h"
 629              		.file 50 "../e-puck2_main-processor/ChibiOS//os/hal/ports/STM32/LLD/sdc_lld.h"
 630              		.file 51 "../e-puck2_main-processor/ChibiOS//os/hal/include/spi.h"
 631              		.file 52 "../e-puck2_main-processor/ChibiOS//os/hal/ports/STM32/LLD/SPIv1/spi_lld.h"
 632              		.file 53 "../e-puck2_main-processor/ChibiOS//os/hal/include/usb.h"
 633              		.file 54 "../e-puck2_main-processor/ChibiOS//os/hal/ports/STM32/LLD/OTGv1/usb_lld.h"
 634              		.file 55 "../e-puck2_main-processor/ChibiOS//os/hal/ports/STM32/LLD/OTGv1/stm32_otg.h"
 635              		.file 56 "d:\\foundation of robotics\\e puck 2\\eclipse_e-puck2_win32_29_jan_2020\\eclipse_e-puck2
 636              		.file 57 "../e-puck2_main-processor/src/msgbus/messagebus.h"
 637              		.file 58 "../e-puck2_main-processor/src/parameter/parameter.h"
 638              		.file 59 "./main.h"
 639              		.file 60 "../e-puck2_main-processor/src/motors.h"
 640              		.file 61 "../e-puck2_main-processor/ChibiOS//os/rt/include/chsys.h"
 641              		.file 62 "../e-puck2_main-processor/src/sensors/proximity.h"
 642              		.file 63 "../e-puck2_main-processor/ChibiOS//os/hal/include/hal.h"
 643              		.file 64 "../e-puck2_main-processor/src/memory_protection.h"
 644              		.file 65 "../e-puck2_main-processor/src/serial_comm.h"
 645              		.file 66 "../e-puck2_main-processor/ChibiOS//os/rt/include/chthreads.h"
 646              		.file 67 "d:\\foundation of robotics\\e puck 2\\eclipse_e-puck2_win32_29_jan_2020\\eclipse_e-puck2
 647              		.file 68 "../e-puck2_main-processor/src/epuck1x/uart/e_uart_char.h"